target datalayout = "e-m:e-p270:32:32-p271:32:32-p272:64:64-i64:64-i128:128-f80:128-n8:16:32:64-S128"
target triple = "x86_64-pc-linux-gnu"

@.str.12 = private unnamed_addr constant [4 x i8] c"%d \00", align 1

; Function Attrs: inlinehint nounwind uwtable
define internal i32 @If_CluWordNum(i32 noundef %0) #3 {
  %2 = alloca i32, align 4
  store i32 %0, ptr %2, align 4, !tbaa !3
  %3 = load i32, ptr %2, align 4, !tbaa !3
  %4 = icmp sle i32 %3, 6
  br i1 %4, label %5, label %6

5:                                                ; preds = %1
  br label %10

6:                                                ; preds = %1
  %7 = load i32, ptr %2, align 4, !tbaa !3
  %8 = sub nsw i32 %7, 6
  %9 = shl i32 1, %8
  br label %10

10:                                               ; preds = %6, %5
  %11 = phi i32 [ 1, %5 ], [ %9, %6 ]
  ret i32 %11
}

; Function Attrs: inlinehint nounwind uwtable
define internal i32 @If_CluEqual(ptr noundef %0, ptr noundef %1, i32 noundef %2) #3 {
  %4 = alloca i32, align 4
  %5 = alloca ptr, align 8
  %6 = alloca ptr, align 8
  %7 = alloca i32, align 4
  %8 = alloca i32, align 4
  %9 = alloca i32, align 4
  %10 = alloca i32, align 4
  store ptr %0, ptr %5, align 8, !tbaa !51
  store ptr %1, ptr %6, align 8, !tbaa !51
  store i32 %2, ptr %7, align 4, !tbaa !3
  call void @llvm.lifetime.start.p0(i64 4, ptr %8) #11
  call void @llvm.lifetime.start.p0(i64 4, ptr %9) #11
  %11 = load i32, ptr %7, align 4, !tbaa !3
  %12 = call i32 @If_CluWordNum(i32 noundef %11)
  store i32 %12, ptr %9, align 4, !tbaa !3
  store i32 0, ptr %8, align 4, !tbaa !3
  br label %13

13:                                               ; preds = %31, %3
  %14 = load i32, ptr %8, align 4, !tbaa !3
  %15 = load i32, ptr %9, align 4, !tbaa !3
  %16 = icmp slt i32 %14, %15
  br i1 %16, label %17, label %34

17:                                               ; preds = %13
  %18 = load ptr, ptr %5, align 8, !tbaa !51
  %19 = load i32, ptr %8, align 4, !tbaa !3
  %20 = sext i32 %19 to i64
  %21 = getelementptr inbounds i64, ptr %18, i64 %20
  %22 = load i64, ptr %21, align 8, !tbaa !79
  %23 = load ptr, ptr %6, align 8, !tbaa !51
  %24 = load i32, ptr %8, align 4, !tbaa !3
  %25 = sext i32 %24 to i64
  %26 = getelementptr inbounds i64, ptr %23, i64 %25
  %27 = load i64, ptr %26, align 8, !tbaa !79
  %28 = icmp ne i64 %22, %27
  br i1 %28, label %29, label %30

29:                                               ; preds = %17
  store i32 0, ptr %4, align 4
  store i32 1, ptr %10, align 4
  br label %35

30:                                               ; preds = %17
  br label %31

31:                                               ; preds = %30
  %32 = load i32, ptr %8, align 4, !tbaa !3
  %33 = add nsw i32 %32, 1
  store i32 %33, ptr %8, align 4, !tbaa !3
  br label %13, !llvm.loop !105

34:                                               ; preds = %13
  store i32 1, ptr %4, align 4
  store i32 1, ptr %10, align 4
  br label %35

35:                                               ; preds = %34, %29
  call void @llvm.lifetime.end.p0(i64 4, ptr %9) #11
  call void @llvm.lifetime.end.p0(i64 4, ptr %8) #11
  %36 = load i32, ptr %4, align 4
  ret i32 %36
}

; Function Attrs: nounwind uwtable
define void @If_CluReverseOrder(ptr noundef %0, i32 noundef %1, ptr noundef %2, ptr noundef %3, i32 noundef %4) #0 {
  %6 = alloca ptr, align 8
  %7 = alloca i32, align 4
  %8 = alloca ptr, align 8
  %9 = alloca ptr, align 8
  %10 = alloca i32, align 4
  %11 = alloca i32, align 4
  %12 = alloca i32, align 4
  %13 = alloca i32, align 4
  store ptr %0, ptr %6, align 8, !tbaa !51
  store i32 %1, ptr %7, align 4, !tbaa !3
  store ptr %2, ptr %8, align 8, !tbaa !21
  store ptr %3, ptr %9, align 8, !tbaa !21
  store i32 %4, ptr %10, align 4, !tbaa !3
  call void @llvm.lifetime.start.p0(i64 4, ptr %11) #11
  call void @llvm.lifetime.start.p0(i64 4, ptr %12) #11
  call void @llvm.lifetime.start.p0(i64 4, ptr %13) #11
  store i32 0, ptr %13, align 4, !tbaa !3
  br label %14

14:                                               ; preds = %35, %5
  %15 = load i32, ptr %13, align 4, !tbaa !3
  %16 = load i32, ptr %7, align 4, !tbaa !3
  %17 = load i32, ptr %10, align 4, !tbaa !3
  %18 = sub nsw i32 %16, %17
  %19 = sdiv i32 %18, 2
  %20 = icmp slt i32 %15, %19
  br i1 %20, label %21, label %38

21:                                               ; preds = %14
  %22 = load i32, ptr %10, align 4, !tbaa !3
  %23 = load i32, ptr %13, align 4, !tbaa !3
  %24 = add nsw i32 %22, %23
  store i32 %24, ptr %11, align 4, !tbaa !3
  %25 = load i32, ptr %7, align 4, !tbaa !3
  %26 = sub nsw i32 %25, 1
  %27 = load i32, ptr %13, align 4, !tbaa !3
  %28 = sub nsw i32 %26, %27
  store i32 %28, ptr %12, align 4, !tbaa !3
  %29 = load ptr, ptr %6, align 8, !tbaa !51
  %30 = load i32, ptr %7, align 4, !tbaa !3
  %31 = load ptr, ptr %8, align 8, !tbaa !21
  %32 = load ptr, ptr %9, align 8, !tbaa !21
  %33 = load i32, ptr %11, align 4, !tbaa !3
  %34 = load i32, ptr %12, align 4, !tbaa !3
  call void @If_CluSwapVars(ptr noundef %29, i32 noundef %30, ptr noundef %31, ptr noundef %32, i32 noundef %33, i32 noundef %34)
  br label %35

35:                                               ; preds = %21
  %36 = load i32, ptr %13, align 4, !tbaa !3
  %37 = add nsw i32 %36, 1
  store i32 %37, ptr %13, align 4, !tbaa !3
  br label %14, !llvm.loop !127

38:                                               ; preds = %14
  call void @llvm.lifetime.end.p0(i64 4, ptr %13) #11
  call void @llvm.lifetime.end.p0(i64 4, ptr %12) #11
  call void @llvm.lifetime.end.p0(i64 4, ptr %11) #11
  ret void
}

; Function Attrs: inlinehint nounwind uwtable
define internal void @If_CluCopy(ptr noundef %0, ptr noundef %1, i32 noundef %2) #3 {
  %4 = alloca ptr, align 8
  %5 = alloca ptr, align 8
  %6 = alloca i32, align 4
  %7 = alloca i32, align 4
  %8 = alloca i32, align 4
  store ptr %0, ptr %4, align 8, !tbaa !51
  store ptr %1, ptr %5, align 8, !tbaa !51
  store i32 %2, ptr %6, align 4, !tbaa !3
  call void @llvm.lifetime.start.p0(i64 4, ptr %7) #11
  call void @llvm.lifetime.start.p0(i64 4, ptr %8) #11
  %9 = load i32, ptr %6, align 4, !tbaa !3
  %10 = call i32 @If_CluWordNum(i32 noundef %9)
  store i32 %10, ptr %8, align 4, !tbaa !3
  store i32 0, ptr %7, align 4, !tbaa !3
  br label %11

11:                                               ; preds = %25, %3
  %12 = load i32, ptr %7, align 4, !tbaa !3
  %13 = load i32, ptr %8, align 4, !tbaa !3
  %14 = icmp slt i32 %12, %13
  br i1 %14, label %15, label %28

15:                                               ; preds = %11
  %16 = load ptr, ptr %5, align 8, !tbaa !51
  %17 = load i32, ptr %7, align 4, !tbaa !3
  %18 = sext i32 %17 to i64
  %19 = getelementptr inbounds i64, ptr %16, i64 %18
  %20 = load i64, ptr %19, align 8, !tbaa !79
  %21 = load ptr, ptr %4, align 8, !tbaa !51
  %22 = load i32, ptr %7, align 4, !tbaa !3
  %23 = sext i32 %22 to i64
  %24 = getelementptr inbounds i64, ptr %21, i64 %23
  store i64 %20, ptr %24, align 8, !tbaa !79
  br label %25

25:                                               ; preds = %15
  %26 = load i32, ptr %7, align 4, !tbaa !3
  %27 = add nsw i32 %26, 1
  store i32 %27, ptr %7, align 4, !tbaa !3
  br label %11, !llvm.loop !101

28:                                               ; preds = %11
  call void @llvm.lifetime.end.p0(i64 4, ptr %8) #11
  call void @llvm.lifetime.end.p0(i64 4, ptr %7) #11
  ret void
}

; Function Attrs: nounwind uwtable
define void @If_CluReverseOrder_old(ptr noundef %0, i32 noundef %1, ptr noundef %2, ptr noundef %3, i32 noundef %4) #0 {
  %6 = alloca ptr, align 8
  %7 = alloca i32, align 4
  %8 = alloca ptr, align 8
  %9 = alloca ptr, align 8
  %10 = alloca i32, align 4
  %11 = alloca [1024 x i64], align 16
  %12 = alloca i32, align 4
  store ptr %0, ptr %6, align 8, !tbaa !51
  store i32 %1, ptr %7, align 4, !tbaa !3
  store ptr %2, ptr %8, align 8, !tbaa !21
  store ptr %3, ptr %9, align 8, !tbaa !21
  store i32 %4, ptr %10, align 4, !tbaa !3
  call void @llvm.lifetime.start.p0(i64 8192, ptr %11) #11
  call void @llvm.lifetime.start.p0(i64 4, ptr %12) #11
  %13 = getelementptr inbounds [1024 x i64], ptr %11, i64 0, i64 0
  %14 = load ptr, ptr %6, align 8, !tbaa !51
  %15 = load i32, ptr %7, align 4, !tbaa !3
  call void @If_CluCopy(ptr noundef %13, ptr noundef %14, i32 noundef %15)
  %16 = load i32, ptr %10, align 4, !tbaa !3
  store i32 %16, ptr %12, align 4, !tbaa !3
  br label %17

17:                                               ; preds = %37, %5
  %18 = load i32, ptr %12, align 4, !tbaa !3
  %19 = load i32, ptr %7, align 4, !tbaa !3
  %20 = icmp slt i32 %18, %19
  br i1 %20, label %21, label %40

21:                                               ; preds = %17
  %22 = load ptr, ptr %6, align 8, !tbaa !51
  %23 = load i32, ptr %7, align 4, !tbaa !3
  %24 = load ptr, ptr %8, align 8, !tbaa !21
  %25 = load ptr, ptr %9, align 8, !tbaa !21
  %26 = load ptr, ptr %9, align 8, !tbaa !21
  %27 = load i32, ptr %10, align 4, !tbaa !3
  %28 = sext i32 %27 to i64
  %29 = getelementptr inbounds i32, ptr %26, i64 %28
  %30 = load i32, ptr %29, align 4, !tbaa !3
  %31 = load i32, ptr %7, align 4, !tbaa !3
  %32 = sub nsw i32 %31, 1
  %33 = load i32, ptr %12, align 4, !tbaa !3
  %34 = load i32, ptr %10, align 4, !tbaa !3
  %35 = sub nsw i32 %33, %34
  %36 = sub nsw i32 %32, %35
  call void @If_CluMoveVar(ptr noundef %22, i32 noundef %23, ptr noundef %24, ptr noundef %25, i32 noundef %30, i32 noundef %36)
  br label %37

37:                                               ; preds = %21
  %38 = load i32, ptr %12, align 4, !tbaa !3
  %39 = add nsw i32 %38, 1
  store i32 %39, ptr %12, align 4, !tbaa !3
  br label %17, !llvm.loop !131

40:                                               ; preds = %17
  %41 = getelementptr inbounds [1024 x i64], ptr %11, i64 0, i64 0
  %42 = load i32, ptr %7, align 4, !tbaa !3
  %43 = load i32, ptr %10, align 4, !tbaa !3
  call void @If_CluReverseOrder(ptr noundef %41, i32 noundef %42, ptr noundef null, ptr noundef null, i32 noundef %43)
  %44 = getelementptr inbounds [1024 x i64], ptr %11, i64 0, i64 0
  %45 = load ptr, ptr %6, align 8, !tbaa !51
  %46 = load i32, ptr %7, align 4, !tbaa !3
  %47 = call i32 @If_CluEqual(ptr noundef %44, ptr noundef %45, i32 noundef %46)
  %48 = icmp ne i32 %47, 0
  br i1 %48, label %49, label %50

49:                                               ; preds = %40
  br label %53

50:                                               ; preds = %40
  %51 = load i32, ptr %7, align 4, !tbaa !3
  %52 = call i32 (ptr, ...) @printf(ptr noundef @.str.12, i32 noundef %51)
  br label %53

53:                                               ; preds = %50, %49
  call void @llvm.lifetime.end.p0(i64 4, ptr %12) #11
  call void @llvm.lifetime.end.p0(i64 8192, ptr %11) #11
  ret void
}