; Function Attrs: nofree nounwind uwtable
define void @If_CluReverseOrder_old(ptr noundef captures(none) %0, i32 noundef %1, ptr noundef captures(none) %2, ptr noundef captures(none) %3, i32 noundef %4) local_unnamed_addr #6 {
  %6 = alloca [1024 x i64], align 16
  call void @llvm.lifetime.start.p0(i64 8192, ptr nonnull %6) #22
  %7 = icmp slt i32 %1, 7
  %8 = add nsw i32 %1, -6
  %9 = shl nuw i32 1, %8
  %10 = select i1 %7, i32 1, i32 %9
  %11 = icmp sgt i32 %10, 0
  br i1 %11, label %.lr.ph.preheader.i, label %If_CluCopy.exit

.lr.ph.preheader.i:                               ; preds = %5
  %wide.trip.count.i = zext nneg i32 %10 to i64
  %12 = shl nuw nsw i64 %wide.trip.count.i, 3
  call void @llvm.memcpy.p0.p0.i64(ptr noundef nonnull align 16 dereferenceable(1) %6, ptr noundef nonnull align 8 dereferenceable(1) %0, i64 %12, i1 false), !tbaa !16
  br label %If_CluCopy.exit

If_CluCopy.exit:                                  ; preds = %.lr.ph.preheader.i, %5
  %13 = icmp slt i32 %4, %1
  br i1 %13, label %.lr.ph, label %._crit_edge

.lr.ph:                                           ; preds = %If_CluCopy.exit
  %14 = sext i32 %4 to i64
  %15 = getelementptr inbounds i32, ptr %3, i64 %14
  %.neg = add nsw i32 %1, -1
  %16 = add i32 %.neg, %4
  br label %17

17:                                               ; preds = %.lr.ph, %17
  %.030 = phi i32 [ %4, %.lr.ph ], [ %20, %17 ]
  %18 = load i32, ptr %15, align 4, !tbaa !6
  %19 = sub i32 %16, %.030
  tail call void @If_CluMoveVar(ptr noundef %0, i32 noundef %1, ptr noundef %2, ptr noundef %3, i32 noundef %18, i32 noundef %19)
  %20 = add i32 %.030, 1
  %exitcond.not = icmp eq i32 %20, %1
  br i1 %exitcond.not, label %._crit_edge, label %17, !llvm.loop !139

._crit_edge:                                      ; preds = %17, %If_CluCopy.exit
  %21 = sub nsw i32 %1, %4
  %22 = sdiv i32 %21, 2
  %23 = icmp sgt i32 %21, 1
  br i1 %23, label %.lr.ph.i20, label %If_CluReverseOrder.exit

.lr.ph.i20:                                       ; preds = %._crit_edge, %.lr.ph.i20
  %.013.i = phi i32 [ %27, %.lr.ph.i20 ], [ 0, %._crit_edge ]
  %24 = add nsw i32 %.013.i, %4
  %25 = xor i32 %.013.i, -1
  %26 = add i32 %1, %25
  call void @If_CluSwapVars(ptr noundef nonnull %6, i32 noundef %1, ptr noundef null, ptr noundef null, i32 noundef %24, i32 noundef %26)
  %27 = add nuw nsw i32 %.013.i, 1
  %exitcond.not.i21 = icmp eq i32 %27, %22
  br i1 %exitcond.not.i21, label %If_CluReverseOrder.exit, label %.lr.ph.i20, !llvm.loop !134

If_CluReverseOrder.exit:                          ; preds = %.lr.ph.i20, %._crit_edge
  br i1 %11, label %.lr.ph.preheader.i22, label %If_CluEqual.exit.thread

.lr.ph.preheader.i22:                             ; preds = %If_CluReverseOrder.exit
  %wide.trip.count.i23 = zext nneg i32 %10 to i64
  br label %.lr.ph.i24

28:                                               ; preds = %.lr.ph.i24
  %indvars.iv.next.i26 = add nuw nsw i64 %indvars.iv.i25, 1
  %exitcond.not.i27 = icmp eq i64 %indvars.iv.next.i26, %wide.trip.count.i23
  br i1 %exitcond.not.i27, label %If_CluEqual.exit.thread, label %.lr.ph.i24, !llvm.loop !109

.lr.ph.i24:                                       ; preds = %28, %.lr.ph.preheader.i22
  %indvars.iv.i25 = phi i64 [ 0, %.lr.ph.preheader.i22 ], [ %indvars.iv.next.i26, %28 ]
  %29 = getelementptr inbounds nuw i64, ptr %6, i64 %indvars.iv.i25
  %30 = load i64, ptr %29, align 8, !tbaa !16
  %31 = getelementptr inbounds nuw i64, ptr %0, i64 %indvars.iv.i25
  %32 = load i64, ptr %31, align 8, !tbaa !16
  %.not.i = icmp eq i64 %30, %32
  br i1 %.not.i, label %28, label %If_CluEqual.exit

If_CluEqual.exit:                                 ; preds = %.lr.ph.i24
  %33 = tail call i32 (ptr, ...) @printf(ptr noundef nonnull dereferenceable(1) @.str.12, i32 noundef %1)
  br label %If_CluEqual.exit.thread

If_CluEqual.exit.thread:                          ; preds = %28, %If_CluReverseOrder.exit, %If_CluEqual.exit
  call void @llvm.lifetime.end.p0(i64 8192, ptr nonnull %6) #22
  ret void
}